(dp1
Vlast_reply_id
p2
I0
sVlast_tweet_id
p3
I1
sVlast_mention_time
p4
F1423060675.6048751
sVlast_mention_id
p5
I562779935463731202
sVrecent_timeline
p6
(lp7
sVlast_reply_time
p8
I0
sVlast_timeline_id
p9
I562982942763646977
sVmention_queue
p10
(lp11
sVlast_timeline_time
p12
F1423060676.166688
sVnew_followers
p13
(lp14
sVlast_follow_check
p15
I0
sVfollowers
p16
(lp17
sVfriends
p18
(lp19
I12
aI20147634
aI764368
aI38397909
aI783214
aI11094232
aI34619509
aI7710472
aI402357141
aI83585393
aI139186313
aI18733132
aI8414132
aI149134959
aI18955455
aI15029720
aI16850371
aI15945285
aI19198381
aI29059784
aI7573752
aI592490041
aI20443468
aI8032822
aI16352318
aI125958966
aI19033675
aI19523359
aI20280065
aI18897157
aI17809182
aI5976
aI2097191
aI63485337
aI10241882
aI1919521
aI731243
aI25970551
aI46679713
aI24188676
aI21096184
asVlast_tweet_time
p20
F1423060676.1671391
s.